target datalayout = "e-m:e-p270:32:32-p271:32:32-p272:64:64-i64:64-i128:128-f80:128-n8:16:32:64-S128"
target triple = "x86_64-pc-linux-gnu"

; Function Attrs: mustprogress nounwind uwtable
define linkonce_odr void @_ZN18duckdb_fastpforlib8internal16pack_single_in64ILt63ELt0ELm9223372036854775807EEENSt9enable_ifIXaageplT_T0_Li32EltplT_T0_Li64EEvE4typeEmRrPj(i64 noundef %0, ptr noundef nonnull align 8 dereferenceable(8) %1) #0 comdat {
  %3 = alloca i64, align 8
  %4 = alloca ptr, align 8
  store i64 %0, ptr %3, align 8, !tbaa !23
  store ptr %1, ptr %4, align 8, !tbaa !38
  %5 = load i64, ptr %3, align 8, !tbaa !23
  %6 = and i64 %5, 9223372036854775807
  %7 = trunc i64 %6 to i32
  %8 = load ptr, ptr %4, align 8, !tbaa !38
  %9 = load ptr, ptr %8, align 8, !tbaa !16
  store i32 %7, ptr %9, align 4, !tbaa !18
  %10 = load ptr, ptr %4, align 8, !tbaa !38
  %11 = load ptr, ptr %10, align 8, !tbaa !16
  %12 = getelementptr inbounds nuw i32, ptr %11, i32 1
  store ptr %12, ptr %10, align 8, !tbaa !16
  %13 = load i64, ptr %3, align 8, !tbaa !23
  %14 = and i64 %13, 9223372036854775807
  %15 = lshr i64 %14, 32
  %16 = trunc i64 %15 to i32
  %17 = load ptr, ptr %4, align 8, !tbaa !38
  %18 = load ptr, ptr %17, align 8, !tbaa !16
  store i32 %16, ptr %18, align 4, !tbaa !18
  ret void
}

; Function Attrs: mustprogress uwtable
define linkonce_odr void @_ZN18duckdb_fastpforlib8internal8UnrollerILt63ELt0EE4PackEPKmPj(ptr noalias noundef %0, ptr noalias noundef %1) #2 comdat align 2 {
  %3 = alloca ptr, align 8
  %4 = alloca ptr, align 8
  store ptr %0, ptr %3, align 8, !tbaa !21
  store ptr %1, ptr %4, align 8, !tbaa !16
  %5 = load ptr, ptr %3, align 8, !tbaa !21
  %6 = getelementptr inbounds nuw i64, ptr %5, i64 0
  %7 = load i64, ptr %6, align 8, !tbaa !23
  call void @_ZN18duckdb_fastpforlib8internal16pack_single_in64ILt63ELt0ELm9223372036854775807EEENSt9enable_ifIXaageplT_T0_Li32EltplT_T0_Li64EEvE4typeEmRrPj(i64 noundef %7, ptr noundef nonnull align 8 dereferenceable(8) %4)
  %8 = load ptr, ptr %3, align 8, !tbaa !21
  %9 = load ptr, ptr %4, align 8, !tbaa !16
  call void @_ZN18duckdb_fastpforlib8internal8UnrollerILt63ELt1EE4PackEPKmPj(ptr noundef %8, ptr noundef %9)
  ret void
}

; Function Attrs: mustprogress uwtable
define void @_ZN18duckdb_fastpforlib8internal12__fastpack63EPKmPj(ptr noalias noundef %0, ptr noalias noundef %1) #2 {
  %3 = alloca ptr, align 8
  %4 = alloca ptr, align 8
  store ptr %0, ptr %3, align 8, !tbaa !21
  store ptr %1, ptr %4, align 8, !tbaa !16
  %5 = load ptr, ptr %3, align 8, !tbaa !21
  %6 = load ptr, ptr %4, align 8, !tbaa !16
  call void @_ZN18duckdb_fastpforlib8internal8UnrollerILt63ELt0EE4PackEPKmPj(ptr noundef %5, ptr noundef %6)
  ret void
}